; ModuleID = 'source-C-CXX/30/201.c'
source_filename = "source-C-CXX/30/201.c"
target datalayout = "e-m:e-p270:32:32-p271:32:32-p272:64:64-i64:64-f80:128-n8:16:32:64-S128"
target triple = "x86_64-pc-linux-gnu"

%struct.student = type { [1000 x i8], %struct.student* }

@.str = private unnamed_addr constant [4 x i8] c"end\00", align 1

; Function Attrs: nounwind sspstrong uwtable
define dso_local void @main() local_unnamed_addr #0 {
  %1 = tail call noalias align 16 dereferenceable_or_null(100) i8* @malloc(i64 100) #5
  %2 = bitcast i8* %1 to %struct.student*
  %3 = getelementptr inbounds %struct.student, %struct.student* %2, i64 0, i32 0, i64 0
  %4 = tail call i32 (i8*, ...) bitcast (i32 (...)* @gets to i32 (i8*, ...)*)(i8* %3) #5
  %5 = tail call i32 @strcmp(i8* noundef nonnull dereferenceable(1) %3, i8* noundef nonnull dereferenceable(4) getelementptr inbounds ([4 x i8], [4 x i8]* @.str, i64 0, i64 0)) #6
  %6 = icmp eq i32 %5, 0
  br i1 %6, label %34, label %7

7:                                                ; preds = %0
  %8 = getelementptr inbounds %struct.student, %struct.student* %2, i64 0, i32 1
  store %struct.student* null, %struct.student** %8, align 8
  %9 = tail call noalias align 16 dereferenceable_or_null(100) i8* @malloc(i64 100) #5
  %10 = bitcast i8* %9 to %struct.student*
  %11 = getelementptr inbounds %struct.student, %struct.student* %10, i64 0, i32 0, i64 0
  %12 = tail call i32 (i8*, ...) bitcast (i32 (...)* @gets to i32 (i8*, ...)*)(i8* %11) #5
  %13 = tail call i32 @strcmp(i8* noundef nonnull dereferenceable(1) %11, i8* noundef nonnull dereferenceable(4) getelementptr inbounds ([4 x i8], [4 x i8]* @.str, i64 0, i64 0)) #6
  %14 = icmp eq i32 %13, 0
  br i1 %14, label %25, label %15

15:                                               ; preds = %7, %15
  %16 = phi %struct.student* [ %17, %15 ], [ %2, %7 ]
  %17 = phi %struct.student* [ %20, %15 ], [ %10, %7 ]
  %18 = getelementptr inbounds %struct.student, %struct.student* %17, i64 0, i32 1
  store %struct.student* %16, %struct.student** %18, align 8
  %19 = tail call noalias align 16 dereferenceable_or_null(100) i8* @malloc(i64 100) #5
  %20 = bitcast i8* %19 to %struct.student*
  %21 = getelementptr inbounds %struct.student, %struct.student* %20, i64 0, i32 0, i64 0
  %22 = tail call i32 (i8*, ...) bitcast (i32 (...)* @gets to i32 (i8*, ...)*)(i8* %21) #5
  %23 = tail call i32 @strcmp(i8* noundef nonnull dereferenceable(1) %21, i8* noundef nonnull dereferenceable(4) getelementptr inbounds ([4 x i8], [4 x i8]* @.str, i64 0, i64 0)) #6
  %24 = icmp eq i32 %23, 0
  br i1 %24, label %25, label %15, !llvm.loop !5

25:                                               ; preds = %15, %7
  %26 = phi %struct.student* [ %2, %7 ], [ %17, %15 ]
  br label %27

27:                                               ; preds = %25, %27
  %28 = phi %struct.student* [ %32, %27 ], [ %26, %25 ]
  %29 = getelementptr inbounds %struct.student, %struct.student* %28, i64 0, i32 0, i64 0
  %30 = tail call i32 @puts(i8* nonnull dereferenceable(1) %29)
  %31 = getelementptr inbounds %struct.student, %struct.student* %28, i64 0, i32 1
  %32 = load %struct.student*, %struct.student** %31, align 8, !tbaa !8
  %33 = icmp eq %struct.student* %32, null
  br i1 %33, label %34, label %27, !llvm.loop !13

34:                                               ; preds = %27, %0
  ret void
}

; Function Attrs: inaccessiblememonly mustprogress nofree nounwind willreturn
declare noalias noundef align 16 i8* @malloc(i64 noundef) local_unnamed_addr #1

declare i32 @gets(...) local_unnamed_addr #2

; Function Attrs: argmemonly mustprogress nofree nounwind readonly willreturn
declare i32 @strcmp(i8* nocapture, i8* nocapture) local_unnamed_addr #3

; Function Attrs: nofree nounwind
declare noundef i32 @puts(i8* nocapture noundef readonly) local_unnamed_addr #4


!llvm.module.flags = !{!0, !1, !2, !3}
!llvm.ident = !{!4}

!0 = !{i32 1, !"wchar_size", i32 4}
!1 = !{i32 7, !"PIC Level", i32 2}
!2 = !{i32 7, !"PIE Level", i32 2}
!3 = !{i32 7, !"uwtable", i32 1}
!4 = !{!"clang version 13.0.0"}
!5 = distinct !{!5, !6, !7}
!6 = !{!"llvm.loop.mustprogress"}
!7 = !{!"llvm.loop.peeled.count", i32 1}
!8 = !{!9, !12, i64 1000}
!9 = !{!"student", !10, i64 0, !12, i64 1000}
!10 = !{!"omnipotent char", !11, i64 0}
!11 = !{!"Simple C/C++ TBAA"}
!12 = !{!"any pointer", !10, i64 0}
!13 = distinct !{!13, !6}
